target datalayout = "e-m:e-p270:32:32-p271:32:32-p272:64:64-i64:64-i128:128-f80:128-n8:16:32:64-S128"
target triple = "x86_64-pc-linux-gnu"

%"class.absl::Cord" = type { %"class.absl::Cord::InlineRep" }
%"class.absl::Cord::InlineRep" = type { %"class.absl::cord_internal::InlineData" }
%"class.absl::cord_internal::InlineData" = type { %"struct.absl::cord_internal::InlineData::Rep" }
%"struct.absl::cord_internal::InlineData::Rep" = type { %union.anon }
%union.anon = type { %"struct.absl::cord_internal::InlineData::Rep::AsTree" }
%"struct.absl::cord_internal::InlineData::Rep::AsTree" = type { i64, ptr }
%"class.std::basic_string_view" = type { i64, ptr }
%"struct.absl::cord_internal::CordRep" = type { i64, %"class.absl::cord_internal::RefcountAndFlags", i8, [3 x i8] }
%"class.absl::cord_internal::RefcountAndFlags" = type { %"struct.std::atomic" }
%"struct.std::atomic" = type { %"struct.std::__atomic_base" }
%"struct.std::__atomic_base" = type { i32 }
%"class.absl::Cord::ChunkIterator" = type { %"class.std::basic_string_view", ptr, i64, %"class.absl::cord_internal::CordRepBtreeReader" }
%"class.absl::cord_internal::CordRepBtreeReader" = type { i64, %"class.absl::cord_internal::CordRepBtreeNavigator" }
%"class.absl::cord_internal::CordRepBtreeNavigator" = type { i32, [12 x i8], [12 x ptr] }
%"class.absl::Cord::CharIterator" = type { %"class.absl::Cord::ChunkIterator" }

; Function Attrs: mustprogress nounwind uwtable
define linkonce_odr dso_local noundef ptr @_ZNK4absl13cord_internal10InlineData3Rep4selfEv(ptr noundef nonnull align 8 dereferenceable(16) %0) #5 comdat align 2 {
  %2 = alloca ptr, align 8
  store ptr %0, ptr %2, align 8, !tbaa !149
  %3 = load ptr, ptr %2, align 8
  ret ptr %3
}

; Function Attrs: mustprogress uwtable
define linkonce_odr dso_local noundef i64 @_ZNK4absl13cord_internal10InlineData3Rep11inline_sizeEv(ptr noundef nonnull align 8 dereferenceable(16) %0) #4 comdat align 2 {
  %2 = alloca ptr, align 8
  store ptr %0, ptr %2, align 8, !tbaa !149
  %3 = load ptr, ptr %2, align 8
  %4 = call noundef ptr @_ZNK4absl13cord_internal10InlineData3Rep4selfEv(ptr noundef nonnull align 8 dereferenceable(16) %3)
  %5 = call noundef signext i8 @_ZNK4absl13cord_internal10InlineData3Rep3tagEv(ptr noundef nonnull align 8 dereferenceable(16) %4)
  %6 = sext i8 %5 to i64
  %7 = lshr i64 %6, 1
  ret i64 %7
}

; Function Attrs: mustprogress nounwind uwtable
define linkonce_odr dso_local noundef ptr @_ZNK4absl13cord_internal10InlineData3Rep4treeEv(ptr noundef nonnull align 8 dereferenceable(16) %0) #5 comdat align 2 {
  %2 = alloca ptr, align 8
  store ptr %0, ptr %2, align 8, !tbaa !149
  %3 = load ptr, ptr %2, align 8
  %4 = call noundef ptr @_ZNK4absl13cord_internal10InlineData3Rep4selfEv(ptr noundef nonnull align 8 dereferenceable(16) %3)
  %5 = getelementptr inbounds nuw %"struct.absl::cord_internal::InlineData::Rep", ptr %4, i32 0, i32 0
  %6 = getelementptr inbounds nuw %"struct.absl::cord_internal::InlineData::Rep::AsTree", ptr %5, i32 0, i32 1
  %7 = load ptr, ptr %6, align 8, !tbaa !58
  ret ptr %7
}

; Function Attrs: mustprogress nounwind uwtable
define linkonce_odr dso_local noundef signext i8 @_ZNK4absl13cord_internal10InlineData3Rep3tagEv(ptr noundef nonnull align 8 dereferenceable(16) %0) #5 comdat align 2 {
  %2 = alloca ptr, align 8
  store ptr %0, ptr %2, align 8, !tbaa !149
  %3 = load ptr, ptr %2, align 8
  %4 = getelementptr inbounds i8, ptr %3, i64 0
  %5 = load i8, ptr %4, align 1, !tbaa !58
  ret i8 %5
}

; Function Attrs: inlinehint mustprogress nounwind uwtable
define linkonce_odr dso_local void @_ZN4absl13cord_internal21CordRepBtreeNavigatorC2Ev(ptr noundef nonnull align 8 dereferenceable(112) %0) unnamed_addr #8 comdat align 2 {
  %2 = alloca ptr, align 8
  store ptr %0, ptr %2, align 8, !tbaa !206
  %3 = load ptr, ptr %2, align 8
  %4 = getelementptr inbounds nuw %"class.absl::cord_internal::CordRepBtreeNavigator", ptr %3, i32 0, i32 0
  store i32 -1, ptr %4, align 8, !tbaa !208
  ret void
}

; Function Attrs: mustprogress uwtable
define linkonce_odr dso_local noundef i64 @_ZNK4absl13cord_internal10InlineData11inline_sizeEv(ptr noundef nonnull align 8 dereferenceable(16) %0) #4 comdat align 2 {
  %2 = alloca ptr, align 8
  store ptr %0, ptr %2, align 8, !tbaa !47
  %3 = load ptr, ptr %2, align 8
  %4 = getelementptr inbounds nuw %"class.absl::cord_internal::InlineData", ptr %3, i32 0, i32 0
  %5 = call noundef i64 @_ZNK4absl13cord_internal10InlineData3Rep11inline_sizeEv(ptr noundef nonnull align 8 dereferenceable(16) %4)
  ret i64 %5
}

; Function Attrs: mustprogress uwtable
define linkonce_odr dso_local noundef ptr @_ZNK4absl13cord_internal10InlineData7as_treeEv(ptr noundef nonnull align 8 dereferenceable(16) %0) #4 comdat align 2 {
  %2 = alloca ptr, align 8
  store ptr %0, ptr %2, align 8, !tbaa !47
  %3 = load ptr, ptr %2, align 8
  %4 = getelementptr inbounds nuw %"class.absl::cord_internal::InlineData", ptr %3, i32 0, i32 0
  %5 = call noundef ptr @_ZNK4absl13cord_internal10InlineData3Rep4treeEv(ptr noundef nonnull align 8 dereferenceable(16) %4)
  ret ptr %5
}

; Function Attrs: mustprogress nounwind uwtable
define linkonce_odr dso_local noundef zeroext i1 @_ZNK4absl13cord_internal10InlineData7is_treeEv(ptr noundef nonnull align 8 dereferenceable(16) %0) #5 comdat align 2 {
  %2 = alloca ptr, align 8
  store ptr %0, ptr %2, align 8, !tbaa !47
  %3 = load ptr, ptr %2, align 8
  %4 = getelementptr inbounds nuw %"class.absl::cord_internal::InlineData", ptr %3, i32 0, i32 0
  %5 = call noundef signext i8 @_ZNK4absl13cord_internal10InlineData3Rep3tagEv(ptr noundef nonnull align 8 dereferenceable(16) %4)
  %6 = sext i8 %5 to i32
  %7 = and i32 %6, 1
  %8 = icmp ne i32 %7, 0
  ret i1 %8
}

; Function Attrs: inlinehint mustprogress nounwind uwtable
define linkonce_odr dso_local void @_ZN4absl13cord_internal18CordRepBtreeReaderC2Ev(ptr noundef nonnull align 8 dereferenceable(120) %0) unnamed_addr #8 comdat align 2 {
  %2 = alloca ptr, align 8
  store ptr %0, ptr %2, align 8, !tbaa !122
  %3 = load ptr, ptr %2, align 8
  %4 = getelementptr inbounds nuw %"class.absl::cord_internal::CordRepBtreeReader", ptr %3, i32 0, i32 0
  store i64 0, ptr %4, align 8, !tbaa !124
  %5 = getelementptr inbounds nuw %"class.absl::cord_internal::CordRepBtreeReader", ptr %3, i32 0, i32 1
  call void @_ZN4absl13cord_internal21CordRepBtreeNavigatorC2Ev(ptr noundef nonnull align 8 dereferenceable(112) %5) #3
  ret void
}

; Function Attrs: mustprogress nounwind uwtable
define linkonce_odr dso_local void @_ZNSt17basic_string_viewIcSt11char_traitsIcEEC2Ev(ptr noundef nonnull align 8 dereferenceable(16) %0) unnamed_addr #5 comdat align 2 {
  %2 = alloca ptr, align 8
  store ptr %0, ptr %2, align 8, !tbaa !40
  %3 = load ptr, ptr %2, align 8
  %4 = getelementptr inbounds nuw %"class.std::basic_string_view", ptr %3, i32 0, i32 0
  store i64 0, ptr %4, align 8, !tbaa !42
  %5 = getelementptr inbounds nuw %"class.std::basic_string_view", ptr %3, i32 0, i32 1
  store ptr null, ptr %5, align 8, !tbaa !44
  ret void
}

; Function Attrs: mustprogress uwtable
define linkonce_odr dso_local noundef i64 @_ZNK4absl4Cord9InlineRep11inline_sizeEv(ptr noundef nonnull align 8 dereferenceable(16) %0) #4 comdat align 2 {
  %2 = alloca ptr, align 8
  store ptr %0, ptr %2, align 8, !tbaa !13
  %3 = load ptr, ptr %2, align 8
  %4 = getelementptr inbounds nuw %"class.absl::Cord::InlineRep", ptr %3, i32 0, i32 0
  %5 = call noundef i64 @_ZNK4absl13cord_internal10InlineData11inline_sizeEv(ptr noundef nonnull align 8 dereferenceable(16) %4)
  ret i64 %5
}

; Function Attrs: inlinehint mustprogress uwtable
define linkonce_odr dso_local noundef ptr @_ZNK4absl4Cord9InlineRep7as_treeEv(ptr noundef nonnull align 8 dereferenceable(16) %0) #6 comdat align 2 {
  %2 = alloca ptr, align 8
  store ptr %0, ptr %2, align 8, !tbaa !13
  %3 = load ptr, ptr %2, align 8
  %4 = getelementptr inbounds nuw %"class.absl::Cord::InlineRep", ptr %3, i32 0, i32 0
  %5 = call noundef ptr @_ZNK4absl13cord_internal10InlineData7as_treeEv(ptr noundef nonnull align 8 dereferenceable(16) %4)
  ret ptr %5
}

; Function Attrs: mustprogress nounwind uwtable
define linkonce_odr dso_local noundef zeroext i1 @_ZNK4absl4Cord9InlineRep7is_treeEv(ptr noundef nonnull align 8 dereferenceable(16) %0) #5 comdat align 2 {
  %2 = alloca ptr, align 8
  store ptr %0, ptr %2, align 8, !tbaa !13
  %3 = load ptr, ptr %2, align 8
  %4 = getelementptr inbounds nuw %"class.absl::Cord::InlineRep", ptr %3, i32 0, i32 0
  %5 = call noundef zeroext i1 @_ZNK4absl13cord_internal10InlineData7is_treeEv(ptr noundef nonnull align 8 dereferenceable(16) %4)
  ret i1 %5
}

; Function Attrs: inlinehint mustprogress nounwind uwtable
define linkonce_odr dso_local noundef zeroext i1 @_ZNK4absl4Cord13ChunkIteratoreqERKS1_(ptr noundef nonnull align 8 dereferenceable(152) %0, ptr noundef nonnull align 8 dereferenceable(152) %1) #8 comdat align 2 {
  %3 = alloca ptr, align 8
  %4 = alloca ptr, align 8
  store ptr %0, ptr %3, align 8, !tbaa !95
  store ptr %1, ptr %4, align 8, !tbaa !95
  %5 = load ptr, ptr %3, align 8
  %6 = getelementptr inbounds nuw %"class.absl::Cord::ChunkIterator", ptr %5, i32 0, i32 2
  %7 = load i64, ptr %6, align 8, !tbaa !97
  %8 = load ptr, ptr %4, align 8, !tbaa !95
  %9 = getelementptr inbounds nuw %"class.absl::Cord::ChunkIterator", ptr %8, i32 0, i32 2
  %10 = load i64, ptr %9, align 8, !tbaa !97
  %11 = icmp eq i64 %7, %10
  ret i1 %11
}

; Function Attrs: mustprogress nounwind uwtable
define linkonce_odr dso_local void @_ZN4absl4Cord13ChunkIteratorC2Ev(ptr noundef nonnull align 8 dereferenceable(152) %0) unnamed_addr #5 comdat align 2 {
  %2 = alloca ptr, align 8
  store ptr %0, ptr %2, align 8, !tbaa !95
  %3 = load ptr, ptr %2, align 8
  %4 = getelementptr inbounds nuw %"class.absl::Cord::ChunkIterator", ptr %3, i32 0, i32 0
  call void @_ZNSt17basic_string_viewIcSt11char_traitsIcEEC2Ev(ptr noundef nonnull align 8 dereferenceable(16) %4) #3
  %5 = getelementptr inbounds nuw %"class.absl::Cord::ChunkIterator", ptr %3, i32 0, i32 1
  store ptr null, ptr %5, align 8, !tbaa !121
  %6 = getelementptr inbounds nuw %"class.absl::Cord::ChunkIterator", ptr %3, i32 0, i32 2
  store i64 0, ptr %6, align 8, !tbaa !97
  %7 = getelementptr inbounds nuw %"class.absl::Cord::ChunkIterator", ptr %3, i32 0, i32 3
  call void @_ZN4absl13cord_internal18CordRepBtreeReaderC2Ev(ptr noundef nonnull align 8 dereferenceable(120) %7) #3
  ret void
}

; Function Attrs: inlinehint mustprogress uwtable
define linkonce_odr dso_local noundef i64 @_ZNK4absl4Cord9InlineRep4sizeEv(ptr noundef nonnull align 8 dereferenceable(16) %0) #6 comdat align 2 {
  %2 = alloca ptr, align 8
  store ptr %0, ptr %2, align 8, !tbaa !13
  %3 = load ptr, ptr %2, align 8
  %4 = call noundef zeroext i1 @_ZNK4absl4Cord9InlineRep7is_treeEv(ptr noundef nonnull align 8 dereferenceable(16) %3)
  br i1 %4, label %5, label %9

5:                                                ; preds = %1
  %6 = call noundef ptr @_ZNK4absl4Cord9InlineRep7as_treeEv(ptr noundef nonnull align 8 dereferenceable(16) %3)
  %7 = getelementptr inbounds nuw %"struct.absl::cord_internal::CordRep", ptr %6, i32 0, i32 0
  %8 = load i64, ptr %7, align 8, !tbaa !38
  br label %11

9:                                                ; preds = %1
  %10 = call noundef i64 @_ZNK4absl4Cord9InlineRep11inline_sizeEv(ptr noundef nonnull align 8 dereferenceable(16) %3)
  br label %11

11:                                               ; preds = %9, %5
  %12 = phi i64 [ %8, %5 ], [ %10, %9 ]
  ret i64 %12
}

; Function Attrs: inlinehint mustprogress nounwind uwtable
define linkonce_odr dso_local noundef zeroext i1 @_ZNK4absl4Cord12CharIteratoreqERKS1_(ptr noundef nonnull align 8 dereferenceable(152) %0, ptr noundef nonnull align 8 dereferenceable(152) %1) #8 comdat align 2 {
  %3 = alloca ptr, align 8
  %4 = alloca ptr, align 8
  store ptr %0, ptr %3, align 8, !tbaa !130
  store ptr %1, ptr %4, align 8, !tbaa !130
  %5 = load ptr, ptr %3, align 8
  %6 = getelementptr inbounds nuw %"class.absl::Cord::CharIterator", ptr %5, i32 0, i32 0
  %7 = load ptr, ptr %4, align 8, !tbaa !130
  %8 = getelementptr inbounds nuw %"class.absl::Cord::CharIterator", ptr %7, i32 0, i32 0
  %9 = call noundef zeroext i1 @_ZNK4absl4Cord13ChunkIteratoreqERKS1_(ptr noundef nonnull align 8 dereferenceable(152) %6, ptr noundef nonnull align 8 dereferenceable(152) %8)
  ret i1 %9
}

; Function Attrs: mustprogress nounwind uwtable
define linkonce_odr dso_local void @_ZN4absl4Cord12CharIteratorC2Ev(ptr noundef nonnull align 8 dereferenceable(152) %0) unnamed_addr #5 comdat align 2 {
  %2 = alloca ptr, align 8
  store ptr %0, ptr %2, align 8, !tbaa !130
  %3 = load ptr, ptr %2, align 8
  %4 = getelementptr inbounds nuw %"class.absl::Cord::CharIterator", ptr %3, i32 0, i32 0
  call void @_ZN4absl4Cord13ChunkIteratorC2Ev(ptr noundef nonnull align 8 dereferenceable(152) %4) #3
  ret void
}

; Function Attrs: inlinehint mustprogress uwtable
define linkonce_odr dso_local noundef i64 @_ZNK4absl4Cord4sizeEv(ptr noundef nonnull align 8 dereferenceable(16) %0) #6 comdat align 2 {
  %2 = alloca ptr, align 8
  store ptr %0, ptr %2, align 8, !tbaa !4
  %3 = load ptr, ptr %2, align 8
  %4 = getelementptr inbounds nuw %"class.absl::Cord", ptr %3, i32 0, i32 0
  %5 = call noundef i64 @_ZNK4absl4Cord9InlineRep4sizeEv(ptr noundef nonnull align 8 dereferenceable(16) %4)
  ret i64 %5
}

; Function Attrs: inlinehint mustprogress nounwind uwtable
define linkonce_odr dso_local noundef zeroext i1 @_ZNK4absl4Cord12CharIteratorneERKS1_(ptr noundef nonnull align 8 dereferenceable(152) %0, ptr noundef nonnull align 8 dereferenceable(152) %1) #8 comdat align 2 {
  %3 = alloca ptr, align 8
  %4 = alloca ptr, align 8
  store ptr %0, ptr %3, align 8, !tbaa !130
  store ptr %1, ptr %4, align 8, !tbaa !130
  %5 = load ptr, ptr %3, align 8
  %6 = load ptr, ptr %4, align 8, !tbaa !130
  %7 = call noundef zeroext i1 @_ZNK4absl4Cord12CharIteratoreqERKS1_(ptr noundef nonnull align 8 dereferenceable(152) %5, ptr noundef nonnull align 8 dereferenceable(152) %6)
  %8 = xor i1 %7, true
  ret i1 %8
}

; Function Attrs: inlinehint mustprogress nounwind uwtable
define linkonce_odr dso_local void @_ZNK4absl4Cord8char_endEv(ptr dead_on_unwind noalias writable sret(%"class.absl::Cord::CharIterator") align 8 %0, ptr noundef nonnull align 8 dereferenceable(16) %1) #8 comdat align 2 {
  %3 = alloca ptr, align 8
  store ptr %1, ptr %3, align 8, !tbaa !4
  call void @llvm.memset.p0.i64(ptr align 8 %0, i8 0, i64 152, i1 false)
  call void @_ZN4absl4Cord12CharIteratorC2Ev(ptr noundef nonnull align 8 dereferenceable(152) %0) #3
  ret void
}

; Function Attrs: inlinehint mustprogress uwtable
define linkonce_odr dso_local noundef zeroext i1 @_ZNK4absl4Cord5emptyEv(ptr noundef nonnull align 8 dereferenceable(16) %0) #6 comdat align 2 {
  %2 = alloca ptr, align 8
  store ptr %0, ptr %2, align 8, !tbaa !4
  %3 = load ptr, ptr %2, align 8
  %4 = call noundef i64 @_ZNK4absl4Cord4sizeEv(ptr noundef nonnull align 8 dereferenceable(16) %3)
  %5 = icmp eq i64 %4, 0
  ret i1 %5
}

; Function Attrs: mustprogress uwtable
define dso_local noundef zeroext i1 @_ZNK4absl4Cord8ContainsERKS0_(ptr noundef nonnull align 8 dereferenceable(16) %0, ptr noundef nonnull align 8 dereferenceable(16) %1) #4 align 2 {
  %3 = alloca ptr, align 8
  %4 = alloca ptr, align 8
  %5 = alloca %"class.absl::Cord::CharIterator", align 8
  %6 = alloca %"class.absl::Cord::CharIterator", align 8
  store ptr %0, ptr %3, align 8, !tbaa !4
  store ptr %1, ptr %4, align 8, !tbaa !4
  %7 = load ptr, ptr %3, align 8
  %8 = load ptr, ptr %4, align 8, !tbaa !4
  %9 = call noundef zeroext i1 @_ZNK4absl4Cord5emptyEv(ptr noundef nonnull align 8 dereferenceable(16) %8)
  call void @llvm.lifetime.start.p0(i64 152, ptr %5) #3
  call void @llvm.lifetime.start.p0(i64 152, ptr %6) #3
  br i1 %9, label %13, label %10

10:                                               ; preds = %2
  %11 = load ptr, ptr %4, align 8, !tbaa !4
  call void @_ZNK4absl4Cord4FindERKS0_(ptr dead_on_unwind writable sret(%"class.absl::Cord::CharIterator") align 8 %5, ptr noundef nonnull align 8 dereferenceable(16) %7, ptr noundef nonnull align 8 dereferenceable(16) %11)
  call void @_ZNK4absl4Cord8char_endEv(ptr dead_on_unwind writable sret(%"class.absl::Cord::CharIterator") align 8 %6, ptr noundef nonnull align 8 dereferenceable(16) %7)
  %12 = call noundef zeroext i1 @_ZNK4absl4Cord12CharIteratorneERKS1_(ptr noundef nonnull align 8 dereferenceable(152) %5, ptr noundef nonnull align 8 dereferenceable(152) %6)
  br label %13

13:                                               ; preds = %10, %2
  %14 = phi i1 [ true, %2 ], [ %12, %10 ]
  call void @llvm.lifetime.end.p0(i64 152, ptr %6) #3
  call void @llvm.lifetime.end.p0(i64 152, ptr %5) #3
  ret i1 %14
}