; Function Attrs: mustprogress uwtable
define dso_local noundef zeroext i1 @_ZNK4absl4Cord8ContainsERKS0_(ptr noundef nonnull align 8 dereferenceable(16) %0, ptr noundef nonnull align 8 dereferenceable(16) %1) local_unnamed_addr #3 align 2 {
  %3 = alloca %"class.absl::Cord::CharIterator", align 8
  %4 = load i8, ptr %1, align 8, !tbaa !13
  %5 = and i8 %4, 1
  %.not.i.i.i = icmp eq i8 %5, 0
  br i1 %.not.i.i.i, label %10, label %6

6:                                                ; preds = %2
  %7 = getelementptr inbounds nuw i8, ptr %1, i64 8
  %8 = load ptr, ptr %7, align 8, !tbaa !13
  %9 = load i64, ptr %8, align 8, !tbaa !22
  br label %_ZNK4absl4Cord5emptyEv.exit

10:                                               ; preds = %2
  %11 = sext i8 %4 to i64
  %12 = lshr exact i64 %11, 1
  br label %_ZNK4absl4Cord5emptyEv.exit

_ZNK4absl4Cord5emptyEv.exit:                      ; preds = %6, %10
  %13 = phi i64 [ %9, %6 ], [ %12, %10 ]
  %14 = icmp eq i64 %13, 0
  call void @llvm.lifetime.start.p0(i64 152, ptr nonnull %3) #27
  br i1 %14, label %19, label %15

15:                                               ; preds = %_ZNK4absl4Cord5emptyEv.exit
  call void @_ZNK4absl4Cord4FindERKS0_(ptr dead_on_unwind nonnull writable sret(%"class.absl::Cord::CharIterator") align 8 %3, ptr noundef nonnull align 8 dereferenceable(16) %0, ptr noundef nonnull align 8 dereferenceable(16) %1)
  %16 = getelementptr inbounds nuw i8, ptr %3, i64 24
  %17 = load i64, ptr %16, align 8, !tbaa !101
  %18 = icmp ne i64 %17, 0
  br label %19

19:                                               ; preds = %15, %_ZNK4absl4Cord5emptyEv.exit
  %20 = phi i1 [ true, %_ZNK4absl4Cord5emptyEv.exit ], [ %18, %15 ]
  call void @llvm.lifetime.end.p0(i64 152, ptr nonnull %3) #27
  ret i1 %20
}